target datalayout = "e-m:e-p270:32:32-p271:32:32-p272:64:64-i64:64-i128:128-f80:128-n8:16:32:64-S128"
target triple = "x86_64-pc-linux-gnu"

%struct.cgroup_conf_t = type { ptr, ptr, i8, i8, float, float, i64, i8, float, float, i64, i8, ptr, i8, i8, i8, i8, i64 }

@slurm_cgroup_conf = external global %struct.cgroup_conf_t, align 8
@.str.135 = private unnamed_addr constant [42 x i8] c"%s is not under the cgroup mountpoint %s.\00", align 1

; Function Attrs: nounwind uwtable
define internal i32 @_enable_controllers(ptr noundef %0, ptr noundef %1) #0 {
  %3 = alloca i32, align 4
  %4 = alloca ptr, align 8
  %5 = alloca ptr, align 8
  %6 = alloca i32, align 4
  %7 = alloca ptr, align 8
  %8 = alloca ptr, align 8
  %9 = alloca i32, align 4
  store ptr %0, ptr %4, align 8
  store ptr %1, ptr %5, align 8
  call void @llvm.lifetime.start.p0(i64 4, ptr %6) #10
  store i32 0, ptr %6, align 4
  call void @llvm.lifetime.start.p0(i64 8, ptr %7) #10
  call void @llvm.lifetime.start.p0(i64 8, ptr %8) #10
  %10 = load ptr, ptr %4, align 8
  %11 = load ptr, ptr @slurm_cgroup_conf, align 8
  %12 = call ptr @xstrstr(ptr noundef %10, ptr noundef %11)
  %13 = icmp ne ptr %12, null
  br i1 %13, label %18, label %14

14:                                               ; preds = %2
  %15 = load ptr, ptr %4, align 8
  %16 = load ptr, ptr @slurm_cgroup_conf, align 8
  %17 = call i32 (ptr, ...) @error(ptr noundef @.str.135, ptr noundef %15, ptr noundef %16)
  store i32 -1, ptr %3, align 4
  store i32 1, ptr %9, align 4
  br label %42

18:                                               ; preds = %2
  %19 = load ptr, ptr %4, align 8
  %20 = call ptr @xstrdup(ptr noundef %19)
  store ptr %20, ptr %8, align 8
  store ptr %20, ptr %7, align 8
  %21 = load ptr, ptr @slurm_cgroup_conf, align 8
  %22 = call i64 @strlen(ptr noundef %21) #12
  %23 = load ptr, ptr %7, align 8
  %24 = getelementptr inbounds nuw i8, ptr %23, i64 %22
  store ptr %24, ptr %7, align 8
  br label %25

25:                                               ; preds = %34, %18
  %26 = load ptr, ptr %7, align 8
  store i8 0, ptr %26, align 1
  %27 = load ptr, ptr %8, align 8
  %28 = load ptr, ptr %5, align 8
  %29 = call i32 @_enable_subtree_control(ptr noundef %27, ptr noundef %28)
  store i32 %29, ptr %6, align 4
  %30 = icmp ne i32 %29, 0
  br i1 %30, label %31, label %32

31:                                               ; preds = %25
  br label %40

32:                                               ; preds = %25
  %33 = load ptr, ptr %7, align 8
  store i8 47, ptr %33, align 1
  br label %34

34:                                               ; preds = %32
  %35 = load ptr, ptr %7, align 8
  %36 = getelementptr inbounds i8, ptr %35, i64 1
  %37 = call ptr @xstrchr(ptr noundef %36, i32 noundef 47)
  store ptr %37, ptr %7, align 8
  %38 = icmp ne ptr %37, null
  br i1 %38, label %25, label %39, !llvm.loop !25

39:                                               ; preds = %34
  br label %40

40:                                               ; preds = %39, %31
  call void @slurm_xfree(ptr noundef %8)
  %41 = load i32, ptr %6, align 4
  store i32 %41, ptr %3, align 4
  store i32 1, ptr %9, align 4
  br label %42

42:                                               ; preds = %40, %14
  call void @llvm.lifetime.end.p0(i64 8, ptr %8) #10
  call void @llvm.lifetime.end.p0(i64 8, ptr %7) #10
  call void @llvm.lifetime.end.p0(i64 4, ptr %6) #10
  %43 = load i32, ptr %3, align 4
  ret i32 %43
}