; Function Attrs: nounwind uwtable
define internal fastcc range(i32 -1, 1) i32 @_enable_controllers(ptr noundef %0, ptr noundef %1) unnamed_addr #0 {
  %3 = alloca ptr, align 8
  call void @llvm.lifetime.start.p0(i64 8, ptr nonnull %3) #17
  %4 = load ptr, ptr @slurm_cgroup_conf, align 8
  %5 = tail call ptr @xstrstr(ptr noundef %0, ptr noundef %4) #17
  %.not = icmp eq ptr %5, null
  br i1 %.not, label %6, label %9

6:                                                ; preds = %2
  %7 = load ptr, ptr @slurm_cgroup_conf, align 8
  %8 = tail call i32 (ptr, ...) @error(ptr noundef nonnull @.str.135, ptr noundef %0, ptr noundef %7) #17
  br label %20

9:                                                ; preds = %2
  %10 = tail call ptr @xstrdup(ptr noundef %0) #17
  store ptr %10, ptr %3, align 8
  %11 = load ptr, ptr @slurm_cgroup_conf, align 8
  %12 = tail call i64 @strlen(ptr noundef nonnull dereferenceable(1) %11) #20
  %13 = getelementptr inbounds nuw i8, ptr %10, i64 %12
  br label %14

14:                                               ; preds = %16, %9
  %.0 = phi ptr [ %13, %9 ], [ %18, %16 ]
  store i8 0, ptr %.0, align 1
  %15 = tail call fastcc i32 @_enable_subtree_control(ptr noundef %10, ptr noundef %1)
  %.not11 = icmp eq i32 %15, 0
  br i1 %.not11, label %16, label %19

16:                                               ; preds = %14
  store i8 47, ptr %.0, align 1
  %17 = getelementptr inbounds nuw i8, ptr %.0, i64 1
  %18 = tail call ptr @xstrchr(ptr noundef nonnull %17, i32 noundef 47) #17
  %.not12 = icmp eq ptr %18, null
  br i1 %.not12, label %19, label %14, !llvm.loop !30

19:                                               ; preds = %16, %14
  %.lcssa = phi i32 [ 0, %16 ], [ -1, %14 ]
  call void @slurm_xfree(ptr noundef nonnull %3) #17
  br label %20

20:                                               ; preds = %19, %6
  %.09 = phi i32 [ %.lcssa, %19 ], [ -1, %6 ]
  call void @llvm.lifetime.end.p0(i64 8, ptr nonnull %3) #17
  ret i32 %.09
}